; Function Attrs: nounwind uwtable
define dso_local i32 @priority_p_recover(i32 noundef %0) local_unnamed_addr #0 {
  %2 = alloca i32, align 4
  store i32 %0, ptr %2, align 4
  %3 = icmp ult i32 %0, 1000000
  br i1 %3, label %8, label %4

4:                                                ; preds = %1
  %5 = load ptr, ptr @job_list, align 8
  %6 = call i32 @list_for_each(ptr noundef %5, ptr noundef nonnull @_foreach_job_boost_prio, ptr noundef nonnull %2) #8
  %7 = load i32, ptr %2, align 4
  br label %8

8:                                                ; preds = %1, %4
  %.0 = phi i32 [ %7, %4 ], [ 0, %1 ]
  ret i32 %.0
}